(lp0
S'Parisa Safa'
p1
aS'Eli Dinkelspiel'
p2
aS'Geoff Ruth'
p3
aS'Thea Harvey-Brown'
p4
aS'Harrison Golding'
p5
aS'Mariah Harvey Brown'
p6
aS'Jack Gale'
p7
aS'Walker Calhoun'
p8
aS'Hannah Berk'
p9
aS'Elena Bernick'
p10
aS'Katie Wilson'
p11
a.