ccopy_reg
_reconstructor
p0
(c__main__
User
p1
c__builtin__
object
p2
Ntp3
Rp4
(dp5
S'dataPoint'
p6
NsS'name'
p7
S'Sam Lim Kimberg'
p8
sS'usrClass'
p9
S'Biology'
p10
sS'goals'
p11
(dp12
S'goal1'
p13
S'Learn somthing cool'
p14
ssb.