ccopy_reg
_reconstructor
p0
(c__main__
User
p1
c__builtin__
object
p2
Ntp3
Rp4
(dp5
S'dataHist'
p6
(lp7
sS'name'
p8
S'Walker Calhoun'
p9
sS'usrClass'
p10
S'Testclass'
p11
sS'goals'
p12
(dp13
S'goal1'
p14
S'Having fun!'
p15
ssb.