ccopy_reg
_reconstructor
p0
(c__main__
User
p1
c__builtin__
object
p2
Ntp3
Rp4
(dp5
S'dataHist'
p6
(lp7
(dp8
S'note'
p9
VGeoff managed to be a good boy today!\u000a
p10
sS'timestamp'
p11
cdatetime
datetime
p12
(S'\x07\xde\x05\x17\r\'4\x0f"\x94'
p13
tp14
Rp15
sS'goal'
p16
NsS'goalVal'
p17
NsasS'name'
p18
S'Geoff Ruth'
p19
sS'usrClass'
p20
S'Chemistry'
p21
sS'goals'
p22
(dp23
S'goal1'
p24
S"Don't hurt any students"
p25
ssb.