ccopy_reg
_reconstructor
p0
(c__main__
User
p1
c__builtin__
object
p2
Ntp3
Rp4
(dp5
S'name'
p6
S'Seth Rosner'
p7
sS'usrClass'
p8
S'Math 2A'
p9
sS'goals'
p10
(dp11
S'goal1'
p12
S'Count to 10 successfully'
p13
ssb.