(lp0
S'Eli Dinkelspiel'
p1
aS'Parisa Safa'
p2
aS'Geoff Ruth'
p3
aS'Genna Gores'
p4
aS'Emma Dinkelspiel'
p5
aS'Steven Dinkelspiel'
p6
aS'Seth Rosner'
p7
aS'Sam Lim Kimberg'
p8
aS'Ella McLeod'
p9
aS'Kim Davidson'
p10
a.